; Function Attrs: nounwind uwtable
define internal ptr @namespace_richcompare(ptr noundef readonly captures(none) %0, ptr noundef readonly captures(none) %1, i32 noundef %2) #0 {
  %4 = getelementptr i8, ptr %0, i64 8
  %.val = load ptr, ptr %4, align 8, !tbaa !10
  %.not.i = icmp eq ptr %.val, @_PyNamespace_Type
  br i1 %.not.i, label %PyObject_TypeCheck.exit.thread, label %PyObject_TypeCheck.exit

PyObject_TypeCheck.exit:                          ; preds = %3
  %5 = tail call i32 @PyType_IsSubtype(ptr noundef %.val, ptr noundef nonnull @_PyNamespace_Type) #3
  %.not11 = icmp eq i32 %5, 0
  br i1 %.not11, label %13, label %PyObject_TypeCheck.exit.thread

PyObject_TypeCheck.exit.thread:                   ; preds = %3, %PyObject_TypeCheck.exit
  %6 = getelementptr i8, ptr %1, i64 8
  %.val6 = load ptr, ptr %6, align 8, !tbaa !10
  %.not.i7 = icmp eq ptr %.val6, @_PyNamespace_Type
  br i1 %.not.i7, label %PyObject_TypeCheck.exit8.thread, label %PyObject_TypeCheck.exit8

PyObject_TypeCheck.exit8:                         ; preds = %PyObject_TypeCheck.exit.thread
  %7 = tail call i32 @PyType_IsSubtype(ptr noundef %.val6, ptr noundef nonnull @_PyNamespace_Type) #3
  %.not = icmp eq i32 %7, 0
  br i1 %.not, label %13, label %PyObject_TypeCheck.exit8.thread

PyObject_TypeCheck.exit8.thread:                  ; preds = %PyObject_TypeCheck.exit.thread, %PyObject_TypeCheck.exit8
  %8 = getelementptr inbounds nuw i8, ptr %0, i64 16
  %9 = load ptr, ptr %8, align 8, !tbaa !24
  %10 = getelementptr inbounds nuw i8, ptr %1, i64 16
  %11 = load ptr, ptr %10, align 8, !tbaa !24
  %12 = tail call ptr @PyObject_RichCompare(ptr noundef %9, ptr noundef %11, i32 noundef %2) #3
  br label %13

13:                                               ; preds = %PyObject_TypeCheck.exit, %PyObject_TypeCheck.exit8, %PyObject_TypeCheck.exit8.thread
  %.0 = phi ptr [ %12, %PyObject_TypeCheck.exit8.thread ], [ @_Py_NotImplementedStruct, %PyObject_TypeCheck.exit8 ], [ @_Py_NotImplementedStruct, %PyObject_TypeCheck.exit ]
  ret ptr %.0
}